; Function Attrs: nounwind uwtable
define internal noundef i32 @hwloc_linux_parse_cpuinfo_x86(ptr noundef readonly captures(none) %0, ptr noundef %1, ptr noundef %2, i32 %3) unnamed_addr #0 {
  %5 = tail call i32 @strcmp(ptr noundef nonnull dereferenceable(10) @.str.148, ptr noundef nonnull dereferenceable(1) %0) #30
  %.not = icmp eq i32 %5, 0
  br i1 %.not, label %6, label %8

6:                                                ; preds = %4
  %7 = load i8, ptr %1, align 1, !tbaa !7
  %.not20 = icmp eq i8 %7, 0
  br i1 %.not20, label %25, label %.sink.split

8:                                                ; preds = %4
  %9 = tail call i32 @strcmp(ptr noundef nonnull dereferenceable(11) @.str.149, ptr noundef nonnull dereferenceable(1) %0) #30
  %.not21 = icmp eq i32 %9, 0
  br i1 %.not21, label %10, label %12

10:                                               ; preds = %8
  %11 = load i8, ptr %1, align 1, !tbaa !7
  %.not22 = icmp eq i8 %11, 0
  br i1 %.not22, label %25, label %.sink.split

12:                                               ; preds = %8
  %13 = tail call i32 @strcmp(ptr noundef nonnull dereferenceable(6) @.str.151, ptr noundef nonnull dereferenceable(1) %0) #30
  %.not23 = icmp eq i32 %13, 0
  br i1 %.not23, label %14, label %16

14:                                               ; preds = %12
  %15 = load i8, ptr %1, align 1, !tbaa !7
  %.not24 = icmp eq i8 %15, 0
  br i1 %.not24, label %25, label %.sink.split

16:                                               ; preds = %12
  %17 = tail call i32 @strcmp(ptr noundef nonnull dereferenceable(11) @.str.152, ptr noundef nonnull dereferenceable(1) %0) #30
  %.not25 = icmp eq i32 %17, 0
  br i1 %.not25, label %18, label %20

18:                                               ; preds = %16
  %19 = load i8, ptr %1, align 1, !tbaa !7
  %.not26 = icmp eq i8 %19, 0
  br i1 %.not26, label %25, label %.sink.split

20:                                               ; preds = %16
  %21 = tail call i32 @strcmp(ptr noundef nonnull dereferenceable(9) @.str.153, ptr noundef nonnull dereferenceable(1) %0) #30
  %.not27 = icmp eq i32 %21, 0
  br i1 %.not27, label %22, label %25

22:                                               ; preds = %20
  %23 = load i8, ptr %1, align 1, !tbaa !7
  %.not28 = icmp eq i8 %23, 0
  br i1 %.not28, label %25, label %.sink.split

.sink.split:                                      ; preds = %22, %18, %14, %10, %6
  %.str.150.sink = phi ptr [ @.str.116, %6 ], [ @.str.150, %10 ], [ @.str.118, %14 ], [ @.str.117, %18 ], [ @.str.154, %22 ]
  %24 = tail call i32 @hwloc__add_info(ptr noundef %2, ptr noundef nonnull %.str.150.sink, ptr noundef nonnull %1) #27
  br label %25

25:                                               ; preds = %.sink.split, %10, %18, %22, %20, %14, %6
  ret i32 0
}